; Function Attrs: nounwind uwtable
define void @lv_theme_default_deinit() local_unnamed_addr #0 {
  %1 = load ptr, ptr getelementptr inbounds nuw (i8, ptr @lv_global, i64 768), align 8, !tbaa !3
  %.not = icmp eq ptr %1, null
  br i1 %.not, label %11, label %2

2:                                                ; preds = %0
  %3 = getelementptr inbounds nuw i8, ptr %1, i64 92
  %4 = load i8, ptr %3, align 4, !tbaa !7, !range !17, !noundef !18
  %5 = trunc nuw i8 %4 to i1
  br i1 %5, label %6, label %.loopexit

6:                                                ; preds = %2
  %7 = getelementptr inbounds nuw i8, ptr %1, i64 96
  br label %8

8:                                                ; preds = %6, %8
  %indvars.iv = phi i64 [ 0, %6 ], [ %indvars.iv.next, %8 ]
  %9 = getelementptr inbounds nuw %struct.lv_style_t, ptr %7, i64 %indvars.iv
  tail call void @lv_style_reset(ptr noundef nonnull %9) #3
  %indvars.iv.next = add nuw nsw i64 %indvars.iv, 1
  %exitcond.not = icmp eq i64 %indvars.iv.next, 67
  br i1 %exitcond.not, label %.loopexit.loopexit, label %8, !llvm.loop !27

.loopexit.loopexit:                               ; preds = %8
  %.pre = load ptr, ptr getelementptr inbounds nuw (i8, ptr @lv_global, i64 768), align 8, !tbaa !3
  br label %.loopexit

.loopexit:                                        ; preds = %.loopexit.loopexit, %2
  %10 = phi ptr [ %.pre, %.loopexit.loopexit ], [ %1, %2 ]
  tail call void @lv_free(ptr noundef %10) #3
  store ptr null, ptr getelementptr inbounds nuw (i8, ptr @lv_global, i64 768), align 8, !tbaa !3
  br label %11

11:                                               ; preds = %.loopexit, %0
  ret void
}